target datalayout = "e-m:e-p270:32:32-p271:32:32-p272:64:64-i64:64-i128:128-f80:128-n8:16:32:64-S128"
target triple = "x86_64-pc-linux-gnu"

%"class.std::__cxx11::basic_string" = type { %"struct.std::__cxx11::basic_string<char>::_Alloc_hider", i64, %union.anon }
%"struct.std::__cxx11::basic_string<char>::_Alloc_hider" = type { ptr }
%union.anon = type { i64, [8 x i8] }
%class.V3Number = type { %class.V3NumberData, ptr, ptr }
%class.V3NumberData = type <{ %union.anon.0, i32, i8, i8, [2 x i8] }>
%union.anon.0 = type { %"class.std::__cxx11::basic_string" }
%class.V3ErrorCode = type { i8 }

@.str.15 = private unnamed_addr constant [114 x i8] c"generated/home/dtcxzyw/WorkSpace/Projects/compilers/llvm-opt-benchmark/bench/verilator/verilator/src/V3Number.cpp\00", align 1
@.str.51 = private unnamed_addr constant [50 x i8] c"Number operation called with same source and dest\00", align 1

; Function Attrs: mustprogress nounwind uwtable
define linkonce_odr dso_local noundef zeroext i8 @_ZNK12V3NumberData4typeEv(ptr noundef nonnull align 8 dereferenceable(40) %0) #7 comdat align 2 {
  %2 = alloca ptr, align 8
  store ptr %0, ptr %2, align 8, !tbaa !42
  %3 = load ptr, ptr %2, align 8
  %4 = getelementptr inbounds nuw %class.V3NumberData, ptr %3, i32 0, i32 2
  %5 = load i8, ptr %4, align 4, !tbaa !45
  ret i8 %5
}

; Function Attrs: mustprogress nounwind uwtable
define linkonce_odr dso_local noundef i32 @_ZNK12V3NumberData5widthEv(ptr noundef nonnull align 8 dereferenceable(40) %0) #7 comdat align 2 {
  %2 = alloca ptr, align 8
  store ptr %0, ptr %2, align 8, !tbaa !42
  %3 = load ptr, ptr %2, align 8
  %4 = getelementptr inbounds nuw %class.V3NumberData, ptr %3, i32 0, i32 1
  %5 = load i32, ptr %4, align 8, !tbaa !44
  ret i32 %5
}

; Function Attrs: mustprogress nounwind uwtable
define linkonce_odr dso_local noundef zeroext i8 @_ZNK8V3Number8dataTypeEv(ptr noundef nonnull align 8 dereferenceable(56) %0) #7 comdat align 2 {
  %2 = alloca ptr, align 8
  store ptr %0, ptr %2, align 8, !tbaa !4
  %3 = load ptr, ptr %2, align 8
  %4 = getelementptr inbounds nuw %class.V3Number, ptr %3, i32 0, i32 0
  %5 = call noundef zeroext i8 @_ZNK12V3NumberData4typeEv(ptr noundef nonnull align 8 dereferenceable(40) %4)
  ret i8 %5
}

; Function Attrs: inlinehint mustprogress nounwind uwtable
define linkonce_odr dso_local noundef nonnull align 4 dereferenceable(4) ptr @_ZSt3maxIiERKT_S2_S2_(ptr noundef nonnull align 4 dereferenceable(4) %0, ptr noundef nonnull align 4 dereferenceable(4) %1) #9 comdat {
  %3 = alloca ptr, align 8
  %4 = alloca ptr, align 8
  %5 = alloca ptr, align 8
  store ptr %0, ptr %4, align 8, !tbaa !52
  store ptr %1, ptr %5, align 8, !tbaa !52
  %6 = load ptr, ptr %4, align 8, !tbaa !52
  %7 = load i32, ptr %6, align 4, !tbaa !33
  %8 = load ptr, ptr %5, align 8, !tbaa !52
  %9 = load i32, ptr %8, align 4, !tbaa !33
  %10 = icmp slt i32 %7, %9
  br i1 %10, label %11, label %13

11:                                               ; preds = %2
  %12 = load ptr, ptr %5, align 8, !tbaa !52
  store ptr %12, ptr %3, align 8
  br label %15

13:                                               ; preds = %2
  %14 = load ptr, ptr %4, align 8, !tbaa !52
  store ptr %14, ptr %3, align 8
  br label %15

15:                                               ; preds = %13, %11
  %16 = load ptr, ptr %3, align 8
  ret ptr %16
}

; Function Attrs: mustprogress nounwind uwtable
define linkonce_odr dso_local noundef i32 @_ZNK8V3Number5widthEv(ptr noundef nonnull align 8 dereferenceable(56) %0) #7 comdat align 2 {
  %2 = alloca ptr, align 8
  store ptr %0, ptr %2, align 8, !tbaa !4
  %3 = load ptr, ptr %2, align 8
  %4 = getelementptr inbounds nuw %class.V3Number, ptr %3, i32 0, i32 0
  %5 = call noundef i32 @_ZNK12V3NumberData5widthEv(ptr noundef nonnull align 8 dereferenceable(40) %4)
  ret i32 %5
}

; Function Attrs: mustprogress uwtable
define linkonce_odr dso_local noundef zeroext i1 @_ZNK8V3Number8isDoubleEv(ptr noundef nonnull align 8 dereferenceable(56) %0) #4 comdat align 2 {
  %2 = alloca ptr, align 8
  store ptr %0, ptr %2, align 8, !tbaa !4
  %3 = load ptr, ptr %2, align 8
  %4 = call noundef zeroext i8 @_ZNK8V3Number8dataTypeEv(ptr noundef nonnull align 8 dereferenceable(56) %3)
  %5 = icmp eq i8 %4, 2
  ret i1 %5
}

; Function Attrs: mustprogress uwtable
define linkonce_odr dso_local noundef zeroext i1 @_ZNK8V3Number8isStringEv(ptr noundef nonnull align 8 dereferenceable(56) %0) #4 comdat align 2 {
  %2 = alloca ptr, align 8
  store ptr %0, ptr %2, align 8, !tbaa !4
  %3 = load ptr, ptr %2, align 8
  %4 = call noundef zeroext i8 @_ZNK8V3Number8dataTypeEv(ptr noundef nonnull align 8 dereferenceable(56) %3)
  %5 = icmp eq i8 %4, 3
  ret i1 %5
}

; Function Attrs: mustprogress nounwind uwtable
define linkonce_odr dso_local void @_ZN11V3ErrorCodeC2ENS_2enE(ptr noundef nonnull align 1 dereferenceable(1) %0, i8 noundef zeroext %1) unnamed_addr #7 comdat align 2 {
  %3 = alloca ptr, align 8
  %4 = alloca i8, align 1
  store ptr %0, ptr %3, align 8, !tbaa !123
  store i8 %1, ptr %4, align 1, !tbaa !125
  %5 = load ptr, ptr %3, align 8
  %6 = getelementptr inbounds nuw %class.V3ErrorCode, ptr %5, i32 0, i32 0
  %7 = load i8, ptr %4, align 1, !tbaa !125
  store i8 %7, ptr %6, align 1, !tbaa !127
  ret void
}

; Function Attrs: mustprogress uwtable
define dso_local noundef nonnull align 8 dereferenceable(56) ptr @_ZN8V3Number9opCaseNeqERKS_S1_(ptr noundef nonnull align 8 dereferenceable(56) %0, ptr noundef nonnull align 8 dereferenceable(56) %1, ptr noundef nonnull align 8 dereferenceable(56) %2) #4 align 2 {
  %4 = alloca ptr, align 8
  %5 = alloca ptr, align 8
  %6 = alloca ptr, align 8
  %7 = alloca ptr, align 8
  %8 = alloca %class.V3ErrorCode, align 1
  %9 = alloca i8, align 1
  %10 = alloca i32, align 4
  %11 = alloca i32, align 4
  %12 = alloca i32, align 4
  %13 = alloca i32, align 4
  store ptr %0, ptr %5, align 8, !tbaa !4
  store ptr %1, ptr %6, align 8, !tbaa !4
  store ptr %2, ptr %7, align 8, !tbaa !4
  %14 = load ptr, ptr %5, align 8
  br label %15

15:                                               ; preds = %3
  %16 = load ptr, ptr %6, align 8, !tbaa !4
  %17 = icmp ne ptr %14, %16
  br i1 %17, label %18, label %21

18:                                               ; preds = %15
  %19 = load ptr, ptr %7, align 8, !tbaa !4
  %20 = icmp ne ptr %14, %19
  br label %21

21:                                               ; preds = %18, %15
  %22 = phi i1 [ false, %15 ], [ %20, %18 ]
  %23 = xor i1 %22, true
  %24 = xor i1 %23, true
  %25 = xor i1 %24, true
  %26 = zext i1 %25 to i64
  %27 = call i64 @llvm.expect.i64(i64 %26, i64 0)
  %28 = icmp ne i64 %27, 0
  br i1 %28, label %29, label %35

29:                                               ; preds = %21
  call void @_ZN11V3ErrorCodeC2ENS_2enE(ptr noundef nonnull align 1 dereferenceable(1) %8, i8 noundef zeroext 4)
  %30 = getelementptr inbounds nuw %class.V3ErrorCode, ptr %8, i32 0, i32 0
  %31 = load i8, ptr %30, align 1
  %32 = call noundef nonnull align 8 dereferenceable(112) ptr @_ZN7V3Error19v3errorPrepFileLineB5cxx11E11V3ErrorCodePKci(i8 %31, ptr noundef @.str.15, i32 noundef 1700)
  %33 = call noundef nonnull align 8 dereferenceable(112) ptr @_ZN7V3Error10v3errorStrB5cxx11Ev()
  %34 = call noundef nonnull align 8 dereferenceable(8) ptr @_ZStlsISt11char_traitsIcEERSt13basic_ostreamIcT_ES5_PKc(ptr noundef nonnull align 8 dereferenceable(8) %33, ptr noundef @.str.51)
  call void @_ZNK8V3Number15v3errorEndFatalERKNSt7__cxx1119basic_ostringstreamIcSt11char_traitsIcESaIcEEE(ptr noundef nonnull align 8 dereferenceable(56) %14, ptr noundef nonnull align 8 dereferenceable(112) %34) #25
  unreachable

35:                                               ; preds = %21
  br label %36

36:                                               ; preds = %35
  call void @llvm.lifetime.start.p0(i64 1, ptr %9) #3
  store i8 0, ptr %9, align 1, !tbaa !36
  %37 = load ptr, ptr %6, align 8, !tbaa !4
  %38 = call noundef zeroext i1 @_ZNK8V3Number8isStringEv(ptr noundef nonnull align 8 dereferenceable(56) %37)
  br i1 %38, label %39, label %43

39:                                               ; preds = %36
  %40 = load ptr, ptr %6, align 8, !tbaa !4
  %41 = load ptr, ptr %7, align 8, !tbaa !4
  %42 = call noundef nonnull align 8 dereferenceable(56) ptr @_ZN8V3Number6opNeqNERKS_S1_(ptr noundef nonnull align 8 dereferenceable(56) %14, ptr noundef nonnull align 8 dereferenceable(56) %40, ptr noundef nonnull align 8 dereferenceable(56) %41)
  store ptr %42, ptr %4, align 8
  store i32 1, ptr %10, align 4
  br label %83

43:                                               ; preds = %36
  %44 = load ptr, ptr %6, align 8, !tbaa !4
  %45 = call noundef zeroext i1 @_ZNK8V3Number8isDoubleEv(ptr noundef nonnull align 8 dereferenceable(56) %44)
  br i1 %45, label %46, label %50

46:                                               ; preds = %43
  %47 = load ptr, ptr %6, align 8, !tbaa !4
  %48 = load ptr, ptr %7, align 8, !tbaa !4
  %49 = call noundef nonnull align 8 dereferenceable(56) ptr @_ZN8V3Number6opNeqDERKS_S1_(ptr noundef nonnull align 8 dereferenceable(56) %14, ptr noundef nonnull align 8 dereferenceable(56) %47, ptr noundef nonnull align 8 dereferenceable(56) %48)
  store ptr %49, ptr %4, align 8
  store i32 1, ptr %10, align 4
  br label %83

50:                                               ; preds = %43
  br label %51

51:                                               ; preds = %50
  call void @llvm.lifetime.start.p0(i64 4, ptr %11) #3
  store i32 0, ptr %11, align 4, !tbaa !33
  br label %52

52:                                               ; preds = %74, %51
  %53 = load i32, ptr %11, align 4, !tbaa !33
  call void @llvm.lifetime.start.p0(i64 4, ptr %12) #3
  %54 = load ptr, ptr %6, align 8, !tbaa !4
  %55 = call noundef i32 @_ZNK8V3Number5widthEv(ptr noundef nonnull align 8 dereferenceable(56) %54)
  store i32 %55, ptr %12, align 4, !tbaa !33
  call void @llvm.lifetime.start.p0(i64 4, ptr %13) #3
  %56 = load ptr, ptr %7, align 8, !tbaa !4
  %57 = call noundef i32 @_ZNK8V3Number5widthEv(ptr noundef nonnull align 8 dereferenceable(56) %56)
  store i32 %57, ptr %13, align 4, !tbaa !33
  %58 = call noundef nonnull align 4 dereferenceable(4) ptr @_ZSt3maxIiERKT_S2_S2_(ptr noundef nonnull align 4 dereferenceable(4) %12, ptr noundef nonnull align 4 dereferenceable(4) %13)
  %59 = load i32, ptr %58, align 4, !tbaa !33
  %60 = icmp slt i32 %53, %59
  call void @llvm.lifetime.end.p0(i64 4, ptr %13) #3
  call void @llvm.lifetime.end.p0(i64 4, ptr %12) #3
  br i1 %60, label %62, label %61

61:                                               ; preds = %52
  store i32 4, ptr %10, align 4
  br label %77

62:                                               ; preds = %52
  %63 = load ptr, ptr %6, align 8, !tbaa !4
  %64 = load i32, ptr %11, align 4, !tbaa !33
  %65 = call noundef signext i8 @_ZNK8V3Number5bitIsEi(ptr noundef nonnull align 8 dereferenceable(56) %63, i32 noundef %64)
  %66 = sext i8 %65 to i32
  %67 = load ptr, ptr %7, align 8, !tbaa !4
  %68 = load i32, ptr %11, align 4, !tbaa !33
  %69 = call noundef signext i8 @_ZNK8V3Number5bitIsEi(ptr noundef nonnull align 8 dereferenceable(56) %67, i32 noundef %68)
  %70 = sext i8 %69 to i32
  %71 = icmp ne i32 %66, %70
  br i1 %71, label %72, label %73

72:                                               ; preds = %62
  store i8 1, ptr %9, align 1, !tbaa !36
  store i32 7, ptr %10, align 4
  br label %77

73:                                               ; preds = %62
  br label %74

74:                                               ; preds = %73
  %75 = load i32, ptr %11, align 4, !tbaa !33
  %76 = add nsw i32 %75, 1
  store i32 %76, ptr %11, align 4, !tbaa !33
  br label %52, !llvm.loop !263

77:                                               ; preds = %72, %61
  call void @llvm.lifetime.end.p0(i64 4, ptr %11) #3
  %78 = load i32, ptr %10, align 4
  switch i32 %78, label %83 [
    i32 4, label %79
    i32 7, label %80
  ]

79:                                               ; preds = %77
  br label %80

80:                                               ; preds = %79, %77
  %81 = load i8, ptr %9, align 1, !tbaa !36
  %82 = call noundef nonnull align 8 dereferenceable(56) ptr @_ZN8V3Number13setSingleBitsEc(ptr noundef nonnull align 8 dereferenceable(56) %14, i8 noundef signext %81)
  store ptr %82, ptr %4, align 8
  store i32 1, ptr %10, align 4
  br label %83

83:                                               ; preds = %80, %77, %46, %39
  call void @llvm.lifetime.end.p0(i64 1, ptr %9) #3
  %84 = load ptr, ptr %4, align 8
  ret ptr %84
}