; Function Attrs: mustprogress uwtable
define dso_local noundef nonnull align 8 dereferenceable(56) ptr @_ZN8V3Number9opCaseNeqERKS_S1_(ptr noundef nonnull returned align 8 dereferenceable(56) %0, ptr noundef nonnull align 8 dereferenceable(56) %1, ptr noundef nonnull align 8 dereferenceable(56) %2) local_unnamed_addr #3 align 2 {
  %4 = icmp eq ptr %0, %1
  %5 = icmp eq ptr %0, %2
  %.not23 = or i1 %4, %5
  br i1 %.not23, label %6, label %10, !prof !134

6:                                                ; preds = %3
  %7 = tail call noundef nonnull align 8 dereferenceable(112) ptr @_ZN7V3Error19v3errorPrepFileLineB5cxx11E11V3ErrorCodePKci(i8 4, ptr noundef nonnull @.str.15, i32 noundef 1700)
  %8 = tail call noundef nonnull align 8 dereferenceable(112) ptr @_ZN7V3Error10v3errorStrB5cxx11Ev()
  %9 = tail call noundef nonnull align 8 dereferenceable(8) ptr @_ZStlsISt11char_traitsIcEERSt13basic_ostreamIcT_ES5_PKc(ptr noundef nonnull align 8 dereferenceable(8) %8, ptr noundef nonnull @.str.51)
  tail call void @_ZNK8V3Number15v3errorEndFatalERKNSt7__cxx1119basic_ostringstreamIcSt11char_traitsIcESaIcEEE(ptr noundef nonnull align 8 dereferenceable(56) %0, ptr noundef nonnull align 8 dereferenceable(112) %9) #34
  unreachable

10:                                               ; preds = %3
  %11 = getelementptr inbounds nuw i8, ptr %1, i64 36
  %12 = load i8, ptr %11, align 4, !tbaa !40
  switch i8 %12, label %.preheader [
    i8 3, label %18
    i8 2, label %20
  ]

.preheader:                                       ; preds = %10
  %13 = getelementptr inbounds nuw i8, ptr %1, i64 32
  %14 = getelementptr inbounds nuw i8, ptr %2, i64 32
  %15 = load i32, ptr %13, align 8, !tbaa !39
  %16 = load i32, ptr %14, align 8, !tbaa !39
  %.sroa.speculated27 = tail call i32 @llvm.smax.i32(i32 %15, i32 %16)
  %17 = icmp sgt i32 %.sroa.speculated27, 0
  br i1 %17, label %.lr.ph, label %._crit_edge

18:                                               ; preds = %10
  %19 = tail call noundef nonnull align 8 dereferenceable(56) ptr @_ZN8V3Number6opNeqNERKS_S1_(ptr noundef nonnull align 8 dereferenceable(56) %0, ptr noundef nonnull align 8 dereferenceable(56) %1, ptr noundef nonnull align 8 dereferenceable(56) %2)
  br label %30

20:                                               ; preds = %10
  %21 = tail call noundef nonnull align 8 dereferenceable(56) ptr @_ZN8V3Number6opNeqDERKS_S1_(ptr noundef nonnull align 8 dereferenceable(56) %0, ptr noundef nonnull align 8 dereferenceable(56) %1, ptr noundef nonnull align 8 dereferenceable(56) %2)
  br label %30

22:                                               ; preds = %.lr.ph
  %23 = add nuw nsw i32 %.028, 1
  %24 = load i32, ptr %13, align 8, !tbaa !39
  %25 = load i32, ptr %14, align 8, !tbaa !39
  %.sroa.speculated = tail call i32 @llvm.smax.i32(i32 %24, i32 %25)
  %26 = icmp slt i32 %23, %.sroa.speculated
  br i1 %26, label %.lr.ph, label %._crit_edge, !llvm.loop !317

.lr.ph:                                           ; preds = %.preheader, %22
  %.028 = phi i32 [ %23, %22 ], [ 0, %.preheader ]
  %27 = tail call noundef signext i8 @_ZNK8V3Number5bitIsEi(ptr noundef nonnull align 8 dereferenceable(56) %1, i32 noundef %.028)
  %28 = tail call noundef signext i8 @_ZNK8V3Number5bitIsEi(ptr noundef nonnull align 8 dereferenceable(56) %2, i32 noundef %.028)
  %.not = icmp eq i8 %27, %28
  br i1 %.not, label %22, label %._crit_edge

._crit_edge:                                      ; preds = %.lr.ph, %22, %.preheader
  %.020 = phi i8 [ 0, %.preheader ], [ 0, %22 ], [ 1, %.lr.ph ]
  %29 = tail call noundef nonnull align 8 dereferenceable(56) ptr @_ZN8V3Number13setSingleBitsEc(ptr noundef nonnull align 8 dereferenceable(56) %0, i8 noundef signext %.020)
  br label %30

30:                                               ; preds = %._crit_edge, %20, %18
  ret ptr %0
}